cnumpy.core.multiarray
_reconstruct
p0
(cnumpy
ndarray
p1
(I0
tp2
S'b'
p3
tp4
Rp5
(I1
(I2
I2
tp6
cnumpy
dtype
p7
(S'f8'
p8
I0
I1
tp9
Rp10
(I3
S'<'
p11
NNNI-1
I-1
I0
tp12
bI00
S'\x1er\xdc\x90\x96*"@)HO\x81\xd7\x19\xe6?)HO\x81\xd7\x19\xe6?\xd0X\xcc\x9f[$#@'
p13
tp14
b.